Certificate:
    Data:
        Version: 3 (0x2)
        Serial Number: 4096 (0x1000)
        Signature Algorithm: sha256WithRSAEncryption
        Issuer: CN=www.modelCA.com, O=Model CA LTD., C=CN, ST=NJ, L=SEU
        Validity
            Not Before: Apr 30 07:19:58 2024 GMT
            Not After : Apr 28 07:19:58 2034 GMT
        Subject: C=CN, ST=NJ, L=SEU, O=Model CA LTD., CN=vpnlabserver.com
        Subject Public Key Info:
            Public Key Algorithm: rsaEncryption
                RSA Public-Key: (2048 bit)
                Modulus:
                    00:d5:00:cd:e6:43:46:09:6b:72:ba:8d:60:04:73:
                    1f:7e:5d:52:9f:5c:f0:11:73:a4:37:0e:5d:c3:89:
                    22:60:4c:53:bd:9b:67:3c:ed:e3:48:1a:61:b0:34:
                    f8:ea:cf:45:fd:e0:07:84:51:2c:2d:49:54:9b:81:
                    68:82:cb:eb:ba:66:7a:ef:08:86:8a:60:98:31:31:
                    f4:2c:22:8d:3f:20:81:5e:db:5c:34:b5:9d:ee:6f:
                    16:a2:c3:48:4b:64:51:1e:39:cd:61:d9:43:f0:cd:
                    f1:da:9e:aa:d6:e8:d5:17:6b:25:1c:98:73:54:28:
                    6f:21:92:89:2d:fd:0b:0c:13:1b:d2:62:5a:2b:73:
                    35:92:ca:04:cc:87:c8:bb:0f:0f:9f:e2:b6:d8:5b:
                    cb:6e:e1:d4:d2:64:8c:33:2a:f9:32:47:cc:19:64:
                    0e:4b:d9:5e:87:fc:78:bd:ed:23:d4:d9:a5:13:df:
                    62:e1:db:ab:d4:92:74:b4:27:50:b1:49:4d:f5:58:
                    fe:64:c7:65:8c:c0:fb:9a:55:45:aa:cc:71:c0:91:
                    0e:aa:0f:d6:75:34:8c:5c:e7:7d:60:22:96:99:21:
                    e0:c0:7b:8a:e2:53:b3:e9:e3:48:cc:06:13:3e:33:
                    c5:47:df:83:48:98:d1:22:5e:47:b1:13:92:18:95:
                    33:4f
                Exponent: 65537 (0x10001)
        X509v3 extensions:
            X509v3 Basic Constraints: 
                CA:FALSE
            Netscape Comment: 
                OpenSSL Generated Certificate
            X509v3 Subject Key Identifier: 
                66:FC:BA:85:F3:8A:9D:B3:41:4A:1B:05:BD:6A:41:4E:32:2A:27:8F
            X509v3 Authority Key Identifier: 
                keyid:44:F2:F6:4B:39:83:76:AE:96:A9:1C:F7:7D:4E:02:8B:51:D2:81:8A

    Signature Algorithm: sha256WithRSAEncryption
         09:ad:4b:b7:92:b9:3b:9d:f1:4a:e1:9b:c8:54:08:61:a9:20:
         c1:43:50:35:8d:d0:ba:7a:34:bd:19:f1:0a:0e:db:b5:9f:9a:
         5d:f2:6f:f5:12:48:d4:48:71:fa:c8:cd:66:db:4f:6e:7f:9d:
         2e:86:e5:27:d4:ff:19:ef:67:21:15:a8:df:4a:72:c0:10:bb:
         01:a6:3f:89:6f:d9:5c:d0:27:a0:af:8c:23:5f:bd:71:c5:ee:
         cf:01:2e:27:65:81:6d:e6:87:c6:38:39:76:49:51:e6:b0:63:
         68:f1:eb:4c:f5:97:cd:88:e6:61:f5:c4:38:5c:21:5b:80:cc:
         3a:3f:e6:71:4b:17:03:da:f2:b4:57:08:b1:bf:2f:6c:bd:80:
         2b:10:d9:b3:19:dc:fe:a7:36:a7:3a:19:4c:32:eb:8d:da:d7:
         ee:b0:58:29:58:31:0c:5b:ff:59:d7:69:28:83:bf:10:ce:c6:
         99:17:7e:dd:87:4c:91:de:1e:95:6a:18:57:fa:47:4e:b2:cf:
         56:46:c2:24:fc:b9:5c:bf:96:92:83:86:73:ec:0f:e3:53:2a:
         e6:6c:15:9f:a9:47:bc:30:14:c2:d6:66:86:6e:5e:b8:d0:46:
         fd:66:7b:a3:82:8c:a9:88:7c:0c:20:52:f9:b4:31:da:6b:d0:
         05:c2:62:e2:ce:90:21:e8:e3:81:4c:94:59:a1:87:d0:04:b8:
         b0:ba:b8:2b:c4:4d:27:3e:fb:0e:7f:85:a5:a1:ce:a1:53:9f:
         98:34:e2:58:e8:99:dc:d4:6e:e7:85:52:23:b7:13:fe:52:db:
         9f:09:90:49:33:e8:57:e9:03:98:c7:e5:6c:c6:96:b0:14:68:
         d4:22:47:a4:e1:1f:bf:9d:8e:25:fd:ae:4a:15:ab:26:8b:68:
         34:15:ad:e7:bd:ba:30:5e:7c:a2:b3:87:11:83:ec:9a:3e:68:
         07:6e:98:e4:bd:8a:c4:e9:e8:ae:ae:94:56:14:da:56:59:89:
         22:1a:0e:1a:69:47:12:ef:58:12:20:90:55:4b:55:12:63:2b:
         4a:a0:a0:7a:99:0e:01:c5:79:cc:ff:29:d2:c4:a4:02:f4:e8:
         b3:5a:1f:80:ec:28:70:79:d1:b6:c8:f5:f9:8f:85:4d:cf:d4:
         4a:34:68:77:c0:84:ed:69:60:d0:99:62:70:97:f7:97:49:1c:
         27:96:7a:56:16:46:ae:22:33:95:fd:4d:8d:38:8d:7c:d8:4d:
         d7:f7:27:91:ea:b9:d7:c8:90:83:78:a9:70:28:75:fd:cb:d4:
         2c:a1:0e:15:7c:dd:62:7a:43:ba:24:28:00:b3:5d:bd:88:fd:
         e5:56:98:21:71:0d:33:62
-----BEGIN CERTIFICATE-----
MIIErDCCApSgAwIBAgICEAAwDQYJKoZIhvcNAQELBQAwWjEYMBYGA1UEAwwPd3d3
Lm1vZGVsQ0EuY29tMRYwFAYDVQQKDA1Nb2RlbCBDQSBMVEQuMQswCQYDVQQGEwJD
TjELMAkGA1UECAwCTkoxDDAKBgNVBAcMA1NFVTAeFw0yNDA0MzAwNzE5NThaFw0z
NDA0MjgwNzE5NThaMFsxCzAJBgNVBAYTAkNOMQswCQYDVQQIDAJOSjEMMAoGA1UE
BwwDU0VVMRYwFAYDVQQKDA1Nb2RlbCBDQSBMVEQuMRkwFwYDVQQDDBB2cG5sYWJz
ZXJ2ZXIuY29tMIIBIjANBgkqhkiG9w0BAQEFAAOCAQ8AMIIBCgKCAQEA1QDN5kNG
CWtyuo1gBHMffl1Sn1zwEXOkNw5dw4kiYExTvZtnPO3jSBphsDT46s9F/eAHhFEs
LUlUm4FogsvrumZ67wiGimCYMTH0LCKNPyCBXttcNLWd7m8WosNIS2RRHjnNYdlD
8M3x2p6q1ujVF2slHJhzVChvIZKJLf0LDBMb0mJaK3M1ksoEzIfIuw8Pn+K22FvL
buHU0mSMMyr5MkfMGWQOS9leh/x4ve0j1NmlE99i4dur1JJ0tCdQsUlN9Vj+ZMdl
jMD7mlVFqsxxwJEOqg/WdTSMXOd9YCKWmSHgwHuK4lOz6eNIzAYTPjPFR9+DSJjR
Il5HsROSGJUzTwIDAQABo3sweTAJBgNVHRMEAjAAMCwGCWCGSAGG+EIBDQQfFh1P
cGVuU1NMIEdlbmVyYXRlZCBDZXJ0aWZpY2F0ZTAdBgNVHQ4EFgQUZvy6hfOKnbNB
ShsFvWpBTjIqJ48wHwYDVR0jBBgwFoAURPL2SzmDdq6WqRz3fU4Ci1HSgYowDQYJ
KoZIhvcNAQELBQADggIBAAmtS7eSuTud8Urhm8hUCGGpIMFDUDWN0Lp6NL0Z8QoO
27Wfml3yb/USSNRIcfrIzWbbT25/nS6G5SfU/xnvZyEVqN9KcsAQuwGmP4lv2VzQ
J6CvjCNfvXHF7s8BLidlgW3mh8Y4OXZJUeawY2jx60z1l82I5mH1xDhcIVuAzDo/
5nFLFwPa8rRXCLG/L2y9gCsQ2bMZ3P6nNqc6GUwy643a1+6wWClYMQxb/1nXaSiD
vxDOxpkXft2HTJHeHpVqGFf6R06yz1ZGwiT8uVy/lpKDhnPsD+NTKuZsFZ+pR7ww
FMLWZoZuXrjQRv1me6OCjKmIfAwgUvm0Mdpr0AXCYuLOkCHo44FMlFmhh9AEuLC6
uCvETSc++w5/haWhzqFTn5g04ljomdzUbueFUiO3E/5S258JkEkz6FfpA5jH5WzG
lrAUaNQiR6ThH7+djiX9rkoVqyaLaDQVree9ujBefKKzhxGD7Jo+aAdumOS9isTp
6K6ulFYU2lZZiSIaDhppRxLvWBIgkFVLVRJjK0qgoHqZDgHFecz/KdLEpAL06LNa
H4DsKHB50bbI9fmPhU3P1Eo0aHfAhO1pYNCZYnCX95dJHCeWelYWRq4iM5X9TY04
jXzYTdf3J5HqudfIkIN4qXAodf3L1CyhDhV83WJ6Q7okKACzXb2I/eVWmCFxDTNi
-----END CERTIFICATE-----
