Certificate:
    Data:
        Version: 3 (0x2)
        Serial Number: 4096 (0x1000)
        Signature Algorithm: sha256WithRSAEncryption
        Issuer: CN=www.modelCA.com, O=Model CA LTD., C=US, ST=New York, L=Syracuse
        Validity
            Not Before: May  9 03:55:04 2024 GMT
            Not After : May  7 03:55:04 2034 GMT
        Subject: C=US, ST=New York, L=Syracuse, O=Model CA LTD., CN=vpnlabserver.com
        Subject Public Key Info:
            Public Key Algorithm: rsaEncryption
                RSA Public-Key: (2048 bit)
                Modulus:
                    00:b5:d9:5f:3d:3e:e6:9e:3d:cc:de:de:33:67:06:
                    dd:10:d8:9e:73:f2:81:1f:ee:b6:d5:94:db:05:04:
                    bc:61:6b:83:53:c3:71:48:4b:39:02:3f:0d:10:57:
                    d9:0e:fa:af:0e:2a:3b:6a:93:7f:a1:9a:c9:ec:aa:
                    4f:41:4f:2a:d3:99:81:7e:10:02:10:1e:97:25:97:
                    ef:7e:f4:63:78:e3:21:2c:a2:d1:6b:a3:47:20:9e:
                    8e:70:3e:93:91:3b:c2:6e:a6:51:01:e3:4b:b8:4a:
                    24:f2:b0:42:b0:15:a2:bd:c7:b3:48:9a:aa:97:73:
                    13:9e:fb:40:33:29:7d:4e:de:2a:be:6b:b6:86:89:
                    df:53:04:d1:43:04:bb:f1:b0:cd:34:b7:d8:49:7a:
                    f8:ca:14:96:03:14:14:f0:94:7d:55:98:8e:47:a8:
                    b0:8c:3d:ee:70:8a:93:b3:b5:4d:a9:bd:70:ff:be:
                    16:20:be:2a:33:20:14:99:f3:38:35:38:fe:81:20:
                    ad:ba:50:e4:31:f2:d4:2a:84:9f:e6:6d:39:fa:11:
                    5f:a1:a5:66:ca:87:97:87:27:e2:9e:88:c2:6b:4e:
                    20:d2:cc:b3:c3:dc:5d:da:78:dc:0e:27:3e:84:d3:
                    cf:84:ab:78:d3:f4:24:ad:07:a5:e4:76:f6:3f:c7:
                    ee:89
                Exponent: 65537 (0x10001)
        X509v3 extensions:
            X509v3 Basic Constraints: 
                CA:FALSE
            Netscape Comment: 
                OpenSSL Generated Certificate
            X509v3 Subject Key Identifier: 
                D4:0A:66:D2:DE:1C:8B:9D:6D:CE:0F:29:50:47:74:90:DF:9C:E9:DC
            X509v3 Authority Key Identifier: 
                keyid:62:3A:67:1B:F7:FD:FA:18:1B:46:85:4E:BC:E7:D9:04:FA:E6:9C:66

    Signature Algorithm: sha256WithRSAEncryption
         91:25:1e:a3:fd:1a:fa:84:fb:ae:34:e8:4b:b2:ce:89:5c:ea:
         54:3a:91:a0:57:8e:f2:f5:98:30:ca:bc:13:7c:ad:66:41:a7:
         84:85:96:2e:08:ad:24:04:2a:ab:cd:87:b0:25:cd:50:d0:ae:
         08:cd:4c:8e:48:60:92:4a:d1:47:c5:00:21:a2:31:e5:fd:ec:
         3f:ff:0e:0f:dc:89:7c:a4:66:46:d2:b5:e3:96:39:30:38:23:
         e2:e7:13:b6:ca:1a:38:f0:ae:16:75:92:18:c0:e0:b9:1e:7d:
         de:c1:9c:a9:e9:fc:84:3d:29:5a:cd:6b:bc:8f:9f:50:e9:b0:
         03:bd:55:61:c9:de:e2:91:9f:fb:3c:69:9b:25:12:7c:d7:34:
         a8:4a:31:65:fc:52:7c:c0:cf:5c:19:7a:b4:2c:ed:f5:b3:bd:
         3d:d4:26:70:25:21:dc:08:ef:d0:bb:d3:98:85:6f:82:f4:7a:
         54:44:ae:f9:5d:8a:52:a2:f7:b9:76:d7:6a:e3:2c:82:47:bf:
         a0:fe:ae:5e:fc:5d:8b:9b:ad:c7:5a:b7:31:92:b4:94:ac:06:
         a5:9b:30:04:7c:06:d5:80:46:a3:a5:55:0b:03:f7:5a:68:56:
         f6:85:d0:c3:24:91:09:0f:b6:e9:6c:d5:3d:e0:de:e3:f2:ac:
         d8:52:b7:63:38:49:90:ac:0a:17:32:f2:4e:6c:47:4c:da:a6:
         1e:b3:83:3f:a8:7b:72:1a:f0:00:d9:f6:97:1d:f5:3c:9b:ac:
         46:eb:16:b5:44:85:e3:39:c8:e5:e0:f3:c3:71:5f:52:e3:a6:
         c8:06:42:59:30:b4:6f:fe:91:41:c8:ea:a8:46:15:92:fe:2d:
         cb:d2:c0:20:75:02:f6:ae:89:85:95:b1:56:8a:d1:2c:07:c6:
         d8:ea:32:55:ee:ab:0b:e5:c5:1e:d5:a8:f9:e0:9f:73:b5:2e:
         00:58:5d:57:f3:25:47:70:65:b9:e4:13:c3:5c:16:c3:29:ad:
         ad:b7:e2:1a:43:ea:19:41:9d:d6:cd:f7:6d:3f:3a:ec:cd:bf:
         bc:02:c7:05:4a:a4:ff:de:ef:e0:56:4a:ca:1d:95:6d:14:d9:
         c0:1a:a4:60:61:5f:2a:15:cf:75:91:c8:dd:5b:24:7d:5f:01:
         ca:ce:ad:d6:3e:17:e3:1c:70:37:ab:a7:cf:28:67:98:36:3f:
         a0:be:c3:06:5c:31:40:2d:40:9d:f7:9a:49:f6:5e:29:0d:36:
         2b:bc:21:1d:14:83:fe:f5:f0:3e:ab:70:3c:b5:14:b8:72:6f:
         1d:3a:43:fd:b8:c2:38:f3:6a:77:e9:d2:85:3c:06:cb:84:28:
         f1:21:45:3e:71:b5:1a:19
-----BEGIN CERTIFICATE-----
MIIEwjCCAqqgAwIBAgICEAAwDQYJKoZIhvcNAQELBQAwZTEYMBYGA1UEAwwPd3d3
Lm1vZGVsQ0EuY29tMRYwFAYDVQQKDA1Nb2RlbCBDQSBMVEQuMQswCQYDVQQGEwJV
UzERMA8GA1UECAwITmV3IFlvcmsxETAPBgNVBAcMCFN5cmFjdXNlMB4XDTI0MDUw
OTAzNTUwNFoXDTM0MDUwNzAzNTUwNFowZjELMAkGA1UEBhMCVVMxETAPBgNVBAgM
CE5ldyBZb3JrMREwDwYDVQQHDAhTeXJhY3VzZTEWMBQGA1UECgwNTW9kZWwgQ0Eg
TFRELjEZMBcGA1UEAwwQdnBubGFic2VydmVyLmNvbTCCASIwDQYJKoZIhvcNAQEB
BQADggEPADCCAQoCggEBALXZXz0+5p49zN7eM2cG3RDYnnPygR/uttWU2wUEvGFr
g1PDcUhLOQI/DRBX2Q76rw4qO2qTf6GayeyqT0FPKtOZgX4QAhAelyWX7370Y3jj
ISyi0WujRyCejnA+k5E7wm6mUQHjS7hKJPKwQrAVor3Hs0iaqpdzE577QDMpfU7e
Kr5rtoaJ31ME0UMEu/GwzTS32El6+MoUlgMUFPCUfVWYjkeosIw97nCKk7O1Tam9
cP++FiC+KjMgFJnzODU4/oEgrbpQ5DHy1CqEn+ZtOfoRX6GlZsqHl4cn4p6IwmtO
INLMs8PcXdp43A4nPoTTz4SreNP0JK0HpeR29j/H7okCAwEAAaN7MHkwCQYDVR0T
BAIwADAsBglghkgBhvhCAQ0EHxYdT3BlblNTTCBHZW5lcmF0ZWQgQ2VydGlmaWNh
dGUwHQYDVR0OBBYEFNQKZtLeHIudbc4PKVBHdJDfnOncMB8GA1UdIwQYMBaAFGI6
Zxv3/foYG0aFTrzn2QT65pxmMA0GCSqGSIb3DQEBCwUAA4ICAQCRJR6j/Rr6hPuu
NOhLss6JXOpUOpGgV47y9ZgwyrwTfK1mQaeEhZYuCK0kBCqrzYewJc1Q0K4IzUyO
SGCSStFHxQAhojHl/ew//w4P3Il8pGZG0rXjljkwOCPi5xO2yho48K4WdZIYwOC5
Hn3ewZyp6fyEPSlazWu8j59Q6bADvVVhyd7ikZ/7PGmbJRJ81zSoSjFl/FJ8wM9c
GXq0LO31s7091CZwJSHcCO/Qu9OYhW+C9HpURK75XYpSove5dtdq4yyCR7+g/q5e
/F2Lm63HWrcxkrSUrAalmzAEfAbVgEajpVULA/daaFb2hdDDJJEJD7bpbNU94N7j
8qzYUrdjOEmQrAoXMvJObEdM2qYes4M/qHtyGvAA2faXHfU8m6xG6xa1RIXjOcjl
4PPDcV9S46bIBkJZMLRv/pFByOqoRhWS/i3L0sAgdQL2romFlbFWitEsB8bY6jJV
7qsL5cUe1aj54J9ztS4AWF1X8yVHcGW55BPDXBbDKa2tt+IaQ+oZQZ3WzfdtPzrs
zb+8AscFSqT/3u/gVkrKHZVtFNnAGqRgYV8qFc91kcjdWyR9XwHKzq3WPhfjHHA3
q6fPKGeYNj+gvsMGXDFALUCd95pJ9l4pDTYrvCEdFIP+9fA+q3A8tRS4cm8dOkP9
uMI482p36dKFPAbLhCjxIUU+cbUaGQ==
-----END CERTIFICATE-----
